target datalayout = "e-m:e-p270:32:32-p271:32:32-p272:64:64-i64:64-i128:128-f80:128-n8:16:32:64-S128"
target triple = "x86_64-pc-linux-gnu"

%struct.RI_QueryKey = type { i32, i32 }
%struct.nameData = type { [64 x i8] }
%struct.RelationData = type { %struct.RelFileLocator, ptr, i32, i32, i8, i8, i8, i8, i8, i32, i32, i32, i32, ptr, ptr, i32, %struct.LockInfoData, ptr, ptr, ptr, ptr, ptr, i8, ptr, ptr, ptr, ptr, ptr, ptr, i32, ptr, i8, ptr, ptr, i32, i8, i32, ptr, i8, ptr, ptr, ptr, ptr, ptr, ptr, ptr, i32, ptr, ptr, ptr, ptr, ptr, ptr, ptr, ptr, ptr, ptr, ptr, ptr, ptr, ptr, ptr, ptr, ptr, ptr, ptr, i32, i8, ptr }
%struct.RelFileLocator = type { i32, i32, i32 }
%struct.LockInfoData = type { %struct.LockRelId }
%struct.LockRelId = type { i32, i32 }
%struct.FormData_pg_class = type { i32, %struct.nameData, i32, i32, i32, i32, i32, i32, i32, i32, float, i32, i32, i8, i8, i8, i8, i16, i16, i8, i8, i8, i8, i8, i8, i8, i8, i32, i32, i32 }
%struct.RI_QueryHashEntry = type { %struct.RI_QueryKey, ptr }
%struct.HASHCTL = type { i64, i64, i64, i64, i64, i64, ptr, ptr, ptr, ptr, ptr, ptr }

@.str.14 = private unnamed_addr constant [14 x i8] c"ri_triggers.c\00", align 1
@.str.38 = private unnamed_addr constant [31 x i8] c"SPI_prepare returned %s for %s\00", align 1
@SPI_result = external global i32, align 4
@ri_constraint_cache = internal global ptr null, align 8
@.str.78 = private unnamed_addr constant [20 x i8] c"RI constraint cache\00", align 1
@.str.79 = private unnamed_addr constant [15 x i8] c"RI query cache\00", align 1
@ri_query_cache = internal global ptr null, align 8
@.str.80 = private unnamed_addr constant [17 x i8] c"RI compare cache\00", align 1
@ri_compare_cache = internal global ptr null, align 8
@__func__.ri_PlanCheck = private unnamed_addr constant [13 x i8] c"ri_PlanCheck\00", align 1

; Function Attrs: nounwind uwtable
define internal void @ri_InitHashTables() #0 {
  %1 = alloca %struct.HASHCTL, align 8
  call void @llvm.lifetime.start.p0(i64 96, ptr %1) #9
  %2 = getelementptr inbounds nuw %struct.HASHCTL, ptr %1, i32 0, i32 4
  store i64 4, ptr %2, align 8
  %3 = getelementptr inbounds nuw %struct.HASHCTL, ptr %1, i32 0, i32 5
  store i64 712, ptr %3, align 8
  %4 = call ptr @hash_create(ptr noundef @.str.78, i64 noundef 64, ptr noundef %1, i32 noundef 40)
  store ptr %4, ptr @ri_constraint_cache, align 8
  call void @CacheRegisterSyscacheCallback(i32 noundef 19, ptr noundef @InvalidateConstraintCacheCallBack, i64 noundef 0)
  %5 = getelementptr inbounds nuw %struct.HASHCTL, ptr %1, i32 0, i32 4
  store i64 8, ptr %5, align 8
  %6 = getelementptr inbounds nuw %struct.HASHCTL, ptr %1, i32 0, i32 5
  store i64 16, ptr %6, align 8
  %7 = call ptr @hash_create(ptr noundef @.str.79, i64 noundef 256, ptr noundef %1, i32 noundef 40)
  store ptr %7, ptr @ri_query_cache, align 8
  %8 = getelementptr inbounds nuw %struct.HASHCTL, ptr %1, i32 0, i32 4
  store i64 8, ptr %8, align 8
  %9 = getelementptr inbounds nuw %struct.HASHCTL, ptr %1, i32 0, i32 5
  store i64 112, ptr %9, align 8
  %10 = call ptr @hash_create(ptr noundef @.str.80, i64 noundef 256, ptr noundef %1, i32 noundef 40)
  store ptr %10, ptr @ri_compare_cache, align 8
  call void @llvm.lifetime.end.p0(i64 96, ptr %1) #9
  ret void
}

; Function Attrs: nounwind uwtable
define internal void @ri_HashPreparedPlan(ptr noundef %0, ptr noundef %1) #0 {
  %3 = alloca ptr, align 8
  %4 = alloca ptr, align 8
  %5 = alloca ptr, align 8
  %6 = alloca i8, align 1
  store ptr %0, ptr %3, align 8
  store ptr %1, ptr %4, align 8
  call void @llvm.lifetime.start.p0(i64 8, ptr %5) #9
  call void @llvm.lifetime.start.p0(i64 1, ptr %6) #9
  %7 = load ptr, ptr @ri_query_cache, align 8
  %8 = icmp ne ptr %7, null
  br i1 %8, label %10, label %9

9:                                                ; preds = %2
  call void @ri_InitHashTables()
  br label %10

10:                                               ; preds = %9, %2
  %11 = load ptr, ptr @ri_query_cache, align 8
  %12 = load ptr, ptr %3, align 8
  %13 = call ptr @hash_search(ptr noundef %11, ptr noundef %12, i32 noundef 1, ptr noundef %6)
  store ptr %13, ptr %5, align 8
  %14 = load ptr, ptr %4, align 8
  %15 = load ptr, ptr %5, align 8
  %16 = getelementptr inbounds nuw %struct.RI_QueryHashEntry, ptr %15, i32 0, i32 1
  store ptr %14, ptr %16, align 8
  call void @llvm.lifetime.end.p0(i64 1, ptr %6) #9
  call void @llvm.lifetime.end.p0(i64 8, ptr %5) #9
  ret void
}

; Function Attrs: nounwind uwtable
define internal ptr @ri_PlanCheck(ptr noundef %0, i32 noundef %1, ptr noundef %2, ptr noundef %3, ptr noundef %4, ptr noundef %5) #0 {
  %7 = alloca ptr, align 8
  %8 = alloca i32, align 4
  %9 = alloca ptr, align 8
  %10 = alloca ptr, align 8
  %11 = alloca ptr, align 8
  %12 = alloca ptr, align 8
  %13 = alloca ptr, align 8
  %14 = alloca ptr, align 8
  %15 = alloca i32, align 4
  %16 = alloca i32, align 4
  store ptr %0, ptr %7, align 8
  store i32 %1, ptr %8, align 4
  store ptr %2, ptr %9, align 8
  store ptr %3, ptr %10, align 8
  store ptr %4, ptr %11, align 8
  store ptr %5, ptr %12, align 8
  call void @llvm.lifetime.start.p0(i64 8, ptr %13) #9
  call void @llvm.lifetime.start.p0(i64 8, ptr %14) #9
  call void @llvm.lifetime.start.p0(i64 4, ptr %15) #9
  call void @llvm.lifetime.start.p0(i64 4, ptr %16) #9
  %17 = load ptr, ptr %10, align 8
  %18 = getelementptr inbounds nuw %struct.RI_QueryKey, ptr %17, i32 0, i32 1
  %19 = load i32, ptr %18, align 4
  %20 = icmp sle i32 %19, 2
  br i1 %20, label %21, label %23

21:                                               ; preds = %6
  %22 = load ptr, ptr %12, align 8
  store ptr %22, ptr %14, align 8
  br label %25

23:                                               ; preds = %6
  %24 = load ptr, ptr %11, align 8
  store ptr %24, ptr %14, align 8
  br label %25

25:                                               ; preds = %23, %21
  call void @GetUserIdAndSecContext(ptr noundef %15, ptr noundef %16)
  %26 = load ptr, ptr %14, align 8
  %27 = getelementptr inbounds nuw %struct.RelationData, ptr %26, i32 0, i32 13
  %28 = load ptr, ptr %27, align 8
  %29 = getelementptr inbounds nuw %struct.FormData_pg_class, ptr %28, i32 0, i32 5
  %30 = load i32, ptr %29, align 4
  %31 = load i32, ptr %16, align 4
  %32 = or i32 %31, 1
  %33 = or i32 %32, 4
  call void @SetUserIdAndSecContext(i32 noundef %30, i32 noundef %33)
  %34 = load ptr, ptr %7, align 8
  %35 = load i32, ptr %8, align 4
  %36 = load ptr, ptr %9, align 8
  %37 = call ptr @SPI_prepare(ptr noundef %34, i32 noundef %35, ptr noundef %36)
  store ptr %37, ptr %13, align 8
  %38 = load ptr, ptr %13, align 8
  %39 = icmp eq ptr %38, null
  br i1 %39, label %40, label %54

40:                                               ; preds = %25
  br label %41

41:                                               ; preds = %40
  br i1 true, label %42, label %44

42:                                               ; preds = %41
  %43 = call zeroext i1 @errstart_cold(i32 noundef 21, ptr noundef null) #10
  br i1 %43, label %46, label %51

44:                                               ; preds = %41
  %45 = call zeroext i1 @errstart(i32 noundef 21, ptr noundef null)
  br i1 %45, label %46, label %51

46:                                               ; preds = %44, %42
  %47 = load i32, ptr @SPI_result, align 4
  %48 = call ptr @SPI_result_code_string(i32 noundef %47)
  %49 = load ptr, ptr %7, align 8
  %50 = call i32 (ptr, ...) @errmsg_internal(ptr noundef @.str.38, ptr noundef %48, ptr noundef %49)
  call void @errfinish(ptr noundef @.str.14, i32 noundef 2468, ptr noundef @__func__.ri_PlanCheck)
  br label %51

51:                                               ; preds = %46, %44, %42
  unreachable

52:                                               ; No predecessors!
  br label %53

53:                                               ; preds = %52
  br label %54

54:                                               ; preds = %53, %25
  %55 = load i32, ptr %15, align 4
  %56 = load i32, ptr %16, align 4
  call void @SetUserIdAndSecContext(i32 noundef %55, i32 noundef %56)
  %57 = load ptr, ptr %13, align 8
  %58 = call i32 @SPI_keepplan(ptr noundef %57)
  %59 = load ptr, ptr %10, align 8
  %60 = load ptr, ptr %13, align 8
  call void @ri_HashPreparedPlan(ptr noundef %59, ptr noundef %60)
  %61 = load ptr, ptr %13, align 8
  call void @llvm.lifetime.end.p0(i64 4, ptr %16) #9
  call void @llvm.lifetime.end.p0(i64 4, ptr %15) #9
  call void @llvm.lifetime.end.p0(i64 8, ptr %14) #9
  call void @llvm.lifetime.end.p0(i64 8, ptr %13) #9
  ret ptr %61
}