; Function Attrs: nounwind uwtable
define internal fastcc nonnull ptr @ri_PlanCheck(ptr noundef %0, i32 noundef %1, ptr noundef nonnull %2, ptr noundef nonnull %3, ptr noundef readonly captures(none) %4, ptr noundef readonly captures(none) %5) unnamed_addr #0 {
  %7 = alloca %struct.HASHCTL, align 8
  %8 = alloca i8, align 1
  %9 = alloca i32, align 4
  %10 = alloca i32, align 4
  call void @llvm.lifetime.start.p0(i64 4, ptr nonnull %9) #11
  call void @llvm.lifetime.start.p0(i64 4, ptr nonnull %10) #11
  %11 = getelementptr inbounds nuw i8, ptr %3, i64 4
  %12 = load i32, ptr %11, align 4
  %13 = icmp slt i32 %12, 3
  %. = select i1 %13, ptr %5, ptr %4
  call void @GetUserIdAndSecContext(ptr noundef nonnull %9, ptr noundef nonnull %10) #11
  %14 = getelementptr inbounds nuw i8, ptr %., i64 56
  %15 = load ptr, ptr %14, align 8
  %16 = getelementptr inbounds nuw i8, ptr %15, i64 80
  %17 = load i32, ptr %16, align 4
  %18 = load i32, ptr %10, align 4
  %19 = or i32 %18, 5
  call void @SetUserIdAndSecContext(i32 noundef %17, i32 noundef %19) #11
  %20 = call ptr @SPI_prepare(ptr noundef %0, i32 noundef %1, ptr noundef nonnull %2) #11
  %21 = icmp eq ptr %20, null
  br i1 %21, label %22, label %27

22:                                               ; preds = %6
  %23 = call zeroext i1 @errstart_cold(i32 noundef 21, ptr noundef null) #10
  call void @llvm.assume(i1 %23)
  %24 = load i32, ptr @SPI_result, align 4
  %25 = call ptr @SPI_result_code_string(i32 noundef %24) #11
  %26 = call i32 (ptr, ...) @errmsg_internal(ptr noundef nonnull @.str.38, ptr noundef %25, ptr noundef %0) #11
  call void @errfinish(ptr noundef nonnull @.str.14, i32 noundef 2468, ptr noundef nonnull @__func__.ri_PlanCheck) #11
  unreachable

27:                                               ; preds = %6
  %28 = load i32, ptr %9, align 4
  %29 = load i32, ptr %10, align 4
  call void @SetUserIdAndSecContext(i32 noundef %28, i32 noundef %29) #11
  %30 = call i32 @SPI_keepplan(ptr noundef nonnull %20) #11
  call void @llvm.lifetime.start.p0(i64 1, ptr nonnull %8) #11
  %31 = load ptr, ptr @ri_query_cache, align 8
  %.not.i = icmp eq ptr %31, null
  br i1 %.not.i, label %32, label %ri_HashPreparedPlan.exit

32:                                               ; preds = %27
  call void @llvm.lifetime.start.p0(i64 96, ptr nonnull %7) #11
  %33 = getelementptr inbounds nuw i8, ptr %7, i64 32
  store i64 4, ptr %33, align 8
  %34 = getelementptr inbounds nuw i8, ptr %7, i64 40
  store i64 712, ptr %34, align 8
  %35 = call ptr @hash_create(ptr noundef nonnull @.str.78, i64 noundef 64, ptr noundef nonnull %7, i32 noundef 40) #11
  store ptr %35, ptr @ri_constraint_cache, align 8
  call void @CacheRegisterSyscacheCallback(i32 noundef 19, ptr noundef nonnull @InvalidateConstraintCacheCallBack, i64 noundef 0) #11
  store i64 8, ptr %33, align 8
  store i64 16, ptr %34, align 8
  %36 = call ptr @hash_create(ptr noundef nonnull @.str.79, i64 noundef 256, ptr noundef nonnull %7, i32 noundef 40) #11
  store ptr %36, ptr @ri_query_cache, align 8
  store i64 8, ptr %33, align 8
  store i64 112, ptr %34, align 8
  %37 = call ptr @hash_create(ptr noundef nonnull @.str.80, i64 noundef 256, ptr noundef nonnull %7, i32 noundef 40) #11
  store ptr %37, ptr @ri_compare_cache, align 8
  call void @llvm.lifetime.end.p0(i64 96, ptr nonnull %7) #11
  %.pre.i = load ptr, ptr @ri_query_cache, align 8
  br label %ri_HashPreparedPlan.exit

ri_HashPreparedPlan.exit:                         ; preds = %27, %32
  %38 = phi ptr [ %.pre.i, %32 ], [ %31, %27 ]
  %39 = call ptr @hash_search(ptr noundef %38, ptr noundef nonnull %3, i32 noundef 1, ptr noundef nonnull %8) #11
  %40 = getelementptr inbounds nuw i8, ptr %39, i64 8
  store ptr %20, ptr %40, align 8
  call void @llvm.lifetime.end.p0(i64 1, ptr nonnull %8) #11
  call void @llvm.lifetime.end.p0(i64 4, ptr nonnull %10) #11
  call void @llvm.lifetime.end.p0(i64 4, ptr nonnull %9) #11
  ret ptr %20
}